; Function Attrs: mustprogress noreturn uwtable
define void @_ZN7mitsuba11DummyStream4readEPvm(ptr nocapture nonnull readnone align 8 %0, ptr nocapture readnone %1, i64 %2) unnamed_addr #4 align 2 personality ptr @__gxx_personality_v0 {
  %4 = alloca %"class.std::__1::basic_string", align 8
  %5 = load ptr, ptr @_ZN7mitsuba11DummyStream7m_classE, align 8
  call void @_ZN10tinyformat6formatIJEEENSt3__112basic_stringIcNS1_11char_traitsIcEENS1_9allocatorIcEEEEPKcDpRKT_(ptr dead_on_unwind nonnull writable sret(%"class.std::__1::basic_string") align 8 %4, ptr noundef nonnull @.str.1)
  invoke void @_ZN7mitsuba6detail5ThrowENS_8LogLevelEPKNS_5ClassEPKciRKNSt3__112basic_stringIcNS7_11char_traitsIcEENS7_9allocatorIcEEEE(i32 noundef 400, ptr noundef %5, ptr noundef nonnull @.str, i32 noundef 14, ptr noundef nonnull align 8 dereferenceable(24) %4) #18
          to label %6 unwind label %7

6:                                                ; preds = %3
  unreachable

7:                                                ; preds = %3
  %8 = landingpad { ptr, i32 }
          cleanup
  call void @_ZNSt3__112basic_stringIcNS_11char_traitsIcEENS_9allocatorIcEEED1Ev(ptr noundef nonnull align 8 dereferenceable(24) %4) #19
  resume { ptr, i32 } %8
}